target datalayout = "e-m:e-p270:32:32-p271:32:32-p272:64:64-i64:64-i128:128-f80:128-n8:16:32:64-S128"
target triple = "x86_64-pc-linux-gnu"

; Function Attrs: nounwind uwtable
define i32 @cli_bcapi_atoi(ptr noundef %0, ptr noundef %1, i32 noundef %2) #0 {
  %4 = alloca i32, align 4
  %5 = alloca ptr, align 8
  %6 = alloca ptr, align 8
  %7 = alloca i32, align 4
  %8 = alloca i32, align 4
  %9 = alloca ptr, align 8
  store ptr %0, ptr %5, align 8
  store ptr %1, ptr %6, align 8
  store i32 %2, ptr %7, align 4
  store i32 0, ptr %8, align 4
  %10 = load ptr, ptr %6, align 8
  %11 = load i32, ptr %7, align 4
  %12 = sext i32 %11 to i64
  %13 = getelementptr inbounds i8, ptr %10, i64 %12
  store ptr %13, ptr %9, align 8
  br label %14

14:                                               ; preds = %32, %3
  %15 = call ptr @__ctype_b_loc() #9
  %16 = load ptr, ptr %15, align 8
  %17 = load ptr, ptr %6, align 8
  %18 = load i8, ptr %17, align 1
  %19 = zext i8 %18 to i32
  %20 = sext i32 %19 to i64
  %21 = getelementptr inbounds i16, ptr %16, i64 %20
  %22 = load i16, ptr %21, align 2
  %23 = zext i16 %22 to i32
  %24 = and i32 %23, 8192
  %25 = icmp ne i32 %24, 0
  br i1 %25, label %26, label %30

26:                                               ; preds = %14
  %27 = load ptr, ptr %6, align 8
  %28 = load ptr, ptr %9, align 8
  %29 = icmp ult ptr %27, %28
  br label %30

30:                                               ; preds = %26, %14
  %31 = phi i1 [ false, %14 ], [ %29, %26 ]
  br i1 %31, label %32, label %35

32:                                               ; preds = %30
  %33 = load ptr, ptr %6, align 8
  %34 = getelementptr inbounds i8, ptr %33, i32 1
  store ptr %34, ptr %6, align 8
  br label %14

35:                                               ; preds = %30
  %36 = load ptr, ptr %6, align 8
  %37 = load ptr, ptr %9, align 8
  %38 = icmp eq ptr %36, %37
  br i1 %38, label %39, label %40

39:                                               ; preds = %35
  store i32 -1, ptr %4, align 4
  br label %101

40:                                               ; preds = %35
  %41 = load ptr, ptr %6, align 8
  %42 = load i8, ptr %41, align 1
  %43 = zext i8 %42 to i32
  %44 = icmp eq i32 %43, 43
  br i1 %44, label %45, label %48

45:                                               ; preds = %40
  %46 = load ptr, ptr %6, align 8
  %47 = getelementptr inbounds i8, ptr %46, i32 1
  store ptr %47, ptr %6, align 8
  br label %48

48:                                               ; preds = %45, %40
  %49 = load ptr, ptr %6, align 8
  %50 = load ptr, ptr %9, align 8
  %51 = icmp eq ptr %49, %50
  br i1 %51, label %52, label %53

52:                                               ; preds = %48
  store i32 -1, ptr %4, align 4
  br label %101

53:                                               ; preds = %48
  %54 = load ptr, ptr %6, align 8
  %55 = load i8, ptr %54, align 1
  %56 = zext i8 %55 to i32
  %57 = icmp eq i32 %56, 45
  br i1 %57, label %58, label %59

58:                                               ; preds = %53
  store i32 -1, ptr %4, align 4
  br label %101

59:                                               ; preds = %53
  %60 = call ptr @__ctype_b_loc() #9
  %61 = load ptr, ptr %60, align 8
  %62 = load ptr, ptr %6, align 8
  %63 = load i8, ptr %62, align 1
  %64 = zext i8 %63 to i32
  %65 = sext i32 %64 to i64
  %66 = getelementptr inbounds i16, ptr %61, i64 %65
  %67 = load i16, ptr %66, align 2
  %68 = zext i16 %67 to i32
  %69 = and i32 %68, 2048
  %70 = icmp ne i32 %69, 0
  br i1 %70, label %72, label %71

71:                                               ; preds = %59
  store i32 -1, ptr %4, align 4
  br label %101

72:                                               ; preds = %59
  br label %73

73:                                               ; preds = %91, %72
  %74 = call ptr @__ctype_b_loc() #9
  %75 = load ptr, ptr %74, align 8
  %76 = load ptr, ptr %6, align 8
  %77 = load i8, ptr %76, align 1
  %78 = zext i8 %77 to i32
  %79 = sext i32 %78 to i64
  %80 = getelementptr inbounds i16, ptr %75, i64 %79
  %81 = load i16, ptr %80, align 2
  %82 = zext i16 %81 to i32
  %83 = and i32 %82, 2048
  %84 = icmp ne i32 %83, 0
  br i1 %84, label %85, label %89

85:                                               ; preds = %73
  %86 = load ptr, ptr %6, align 8
  %87 = load ptr, ptr %9, align 8
  %88 = icmp ult ptr %86, %87
  br label %89

89:                                               ; preds = %85, %73
  %90 = phi i1 [ false, %73 ], [ %88, %85 ]
  br i1 %90, label %91, label %99

91:                                               ; preds = %89
  %92 = load i32, ptr %8, align 4
  %93 = mul nsw i32 %92, 10
  %94 = load ptr, ptr %6, align 8
  %95 = load i8, ptr %94, align 1
  %96 = zext i8 %95 to i32
  %97 = sub nsw i32 %96, 48
  %98 = add nsw i32 %93, %97
  store i32 %98, ptr %8, align 4
  br label %73

99:                                               ; preds = %89
  %100 = load i32, ptr %8, align 4
  store i32 %100, ptr %4, align 4
  br label %101

101:                                              ; preds = %99, %71, %58, %52, %39
  %102 = load i32, ptr %4, align 4
  ret i32 %102
}