; Function Attrs: nofree nosync nounwind memory(read, inaccessiblemem: none) uwtable
define noundef i32 @cli_bcapi_atoi(ptr nocapture noundef readnone %0, ptr noundef readonly %1, i32 noundef %2) local_unnamed_addr #18 {
  %4 = sext i32 %2 to i64
  %5 = getelementptr inbounds i8, ptr %1, i64 %4
  %6 = tail call ptr @__ctype_b_loc() #31
  %7 = load ptr, ptr %6, align 8
  br label %8

8:                                                ; preds = %8, %3
  %.021 = phi ptr [ %1, %3 ], [ %17, %8 ]
  %9 = load i8, ptr %.021, align 1
  %10 = zext i8 %9 to i64
  %11 = getelementptr inbounds i16, ptr %7, i64 %10
  %12 = load i16, ptr %11, align 2
  %13 = and i16 %12, 8192
  %14 = icmp ne i16 %13, 0
  %15 = icmp ult ptr %.021, %5
  %16 = select i1 %14, i1 %15, i1 false
  %17 = getelementptr inbounds i8, ptr %.021, i64 1
  br i1 %16, label %8, label %18

18:                                               ; preds = %8
  %19 = icmp eq ptr %.021, %5
  br i1 %19, label %.loopexit, label %20

20:                                               ; preds = %18
  %21 = icmp eq i8 %9, 43
  %spec.select.idx = zext i1 %21 to i64
  %spec.select = getelementptr inbounds i8, ptr %.021, i64 %spec.select.idx
  %22 = icmp eq ptr %spec.select, %5
  br i1 %22, label %.loopexit, label %23

23:                                               ; preds = %20
  %24 = load i8, ptr %spec.select, align 1
  %25 = icmp eq i8 %24, 45
  br i1 %25, label %.loopexit, label %26

26:                                               ; preds = %23
  %27 = zext i8 %24 to i64
  %28 = getelementptr inbounds i16, ptr %7, i64 %27
  %29 = load i16, ptr %28, align 2
  %30 = and i16 %29, 2048
  %.not = icmp eq i16 %30, 0
  br i1 %.not, label %.loopexit, label %.preheader

.preheader:                                       ; preds = %26
  %31 = icmp ult ptr %spec.select, %5
  br i1 %31, label %.lr.ph, label %.loopexit

.lr.ph:                                           ; preds = %.preheader, %.lr.ph
  br label %.lr.ph

.loopexit:                                        ; preds = %.preheader, %26, %23, %20, %18
  %.0 = phi i32 [ -1, %18 ], [ -1, %20 ], [ -1, %23 ], [ -1, %26 ], [ 0, %.preheader ]
  ret i32 %.0
}